#include <math.h>
#include <stdio.h>
#include <stdlib.h>
#include <string.h>

int main()
{
	int n;
	scanf("%d\n",&n);
	int sz[300],i,sj,j,m=0;
	for(i=0;i<n;i++)
	{
		scanf("%d",&sj);
		int pd=0;
		for(j=0;j<m;j++)
		{
			if(sj==sz[j])
			{
				pd=pd+1;
			}
		}
		if(pd==0)
		{
			sz[m]=sj;
			m=m+1;
		}
	}
	for(int k=0;k<m-1;k++)
	{
		printf("%d,",sz[k]);
	}
	printf("%d",sz[m-1]);
	return 0;
}

